; Function Attrs: mustprogress uwtable
define noundef i32 @_ZNK14dtNavMeshQuery15findNearestPolyEPKfS1_PK13dtQueryFilterPjPf(ptr noundef nonnull align 8 dereferenceable(104) %0, ptr noundef %1, ptr noundef %2, ptr noundef %3, ptr noundef writeonly %4, ptr noundef writeonly %5) local_unnamed_addr #1 align 2 personality ptr @__gxx_personality_v0 {
  %7 = alloca %class.dtFindNearestPolyQuery, align 8
  call void @llvm.lifetime.start.p0(i64 48, ptr nonnull %7)
  %8 = tail call noundef ptr @_Z21dtAssertFailGetCustomv()
  %9 = icmp ne ptr %8, null
  %10 = load ptr, ptr %0, align 8
  %.not.i = icmp eq ptr %10, null
  %or.cond.i = select i1 %9, i1 %.not.i, i1 false
  br i1 %or.cond.i, label %11, label %12

11:                                               ; preds = %6
  tail call void %8(ptr noundef nonnull @.str, ptr noundef nonnull @.str.1, i32 noundef 706)
  br label %12

12:                                               ; preds = %11, %6
  %.not22.i = icmp eq ptr %4, null
  br i1 %.not22.i, label %_ZNK14dtNavMeshQuery15findNearestPolyEPKfS1_PK13dtQueryFilterPjPfPb.exit, label %13

13:                                               ; preds = %12
  store ptr getelementptr inbounds ({ [5 x ptr] }, ptr @_ZTV22dtFindNearestPolyQuery, i64 0, i32 0, i64 2), ptr %7, align 8
  %14 = getelementptr inbounds i8, ptr %7, i64 8
  store ptr %0, ptr %14, align 8
  %15 = getelementptr inbounds i8, ptr %7, i64 16
  store ptr %1, ptr %15, align 8
  %16 = getelementptr inbounds i8, ptr %7, i64 24
  store float 0x47EFFFFFE0000000, ptr %16, align 8
  %17 = getelementptr inbounds i8, ptr %7, i64 28
  call void @llvm.memset.p0.i64(ptr noundef nonnull align 4 dereferenceable(17) %17, i8 0, i64 17, i1 false)
  %18 = invoke noundef i32 @_ZNK14dtNavMeshQuery13queryPolygonsEPKfS1_PK13dtQueryFilterP11dtPolyQuery(ptr noundef nonnull align 8 dereferenceable(104) %0, ptr noundef %1, ptr noundef %2, ptr noundef %3, ptr noundef nonnull %7)
          to label %19 unwind label %21, !range !12

19:                                               ; preds = %13
  %20 = icmp slt i32 %18, 0
  br i1 %20, label %31, label %23

21:                                               ; preds = %13
  %22 = landingpad { ptr, i32 }
          cleanup
  call void @_ZN22dtFindNearestPolyQueryD1Ev(ptr noundef nonnull align 8 dereferenceable(45) %7) #20
  resume { ptr, i32 } %22

23:                                               ; preds = %19
  %24 = load i32, ptr %17, align 4
  store i32 %24, ptr %4, align 4
  %.not23.i = icmp eq ptr %5, null
  %.not24.i = icmp eq i32 %24, 0
  %or.cond26.i = or i1 %.not23.i, %.not24.i
  br i1 %or.cond26.i, label %31, label %25

25:                                               ; preds = %23
  %26 = getelementptr inbounds i8, ptr %7, i64 32
  %27 = load <2 x float>, ptr %26, align 8
  store <2 x float> %27, ptr %5, align 4
  %28 = getelementptr inbounds i8, ptr %7, i64 40
  %29 = load float, ptr %28, align 8
  %30 = getelementptr inbounds i8, ptr %5, i64 8
  store float %29, ptr %30, align 4
  br label %31

31:                                               ; preds = %25, %23, %19
  %.0.i = phi i32 [ %18, %19 ], [ 1073741824, %25 ], [ 1073741824, %23 ]
  call void @_ZN22dtFindNearestPolyQueryD1Ev(ptr noundef nonnull align 8 dereferenceable(45) %7) #20
  br label %_ZNK14dtNavMeshQuery15findNearestPolyEPKfS1_PK13dtQueryFilterPjPfPb.exit

_ZNK14dtNavMeshQuery15findNearestPolyEPKfS1_PK13dtQueryFilterPjPfPb.exit: ; preds = %12, %31
  %.1.i = phi i32 [ %.0.i, %31 ], [ -2147483640, %12 ]
  call void @llvm.lifetime.end.p0(i64 48, ptr nonnull %7)
  ret i32 %.1.i
}